target datalayout = "e-m:e-p270:32:32-p271:32:32-p272:64:64-i64:64-i128:128-f80:128-n8:16:32:64-S128"
target triple = "x86_64-pc-linux-gnu"

%"struct.std::__detail::_Hash_node_base" = type { ptr }
%"struct.std::__detail::_Prime_rehash_policy" = type { float, i64 }
%"class.open3d::visualization::Visualizer" = type { ptr, ptr, %"class.std::__cxx11::basic_string", %"class.std::shared_ptr", %"class.Eigen::Matrix", %"class.Eigen::Matrix", %"class.std::function", %"class.std::function", %"struct.open3d::visualization::Visualizer::MouseControl", i8, i8, i32, i32, i32, i32, %"class.std::unique_ptr", %"class.std::unique_ptr.20", %"class.std::unordered_set", %"class.std::unordered_set.47", %"class.std::vector", %"class.std::vector.70", %"class.std::unordered_map.75", %"class.std::shared_ptr.89", %"class.std::shared_ptr.92" }
%"class.std::__cxx11::basic_string" = type { %"struct.std::__cxx11::basic_string<char>::_Alloc_hider", i64, %union.anon }
%"struct.std::__cxx11::basic_string<char>::_Alloc_hider" = type { ptr }
%union.anon = type { i64, [8 x i8] }
%"class.std::shared_ptr" = type { %"class.std::__shared_ptr" }
%"class.std::__shared_ptr" = type { ptr, %"class.std::__shared_count" }
%"class.std::__shared_count" = type { ptr }
%"class.Eigen::Matrix" = type { %"class.Eigen::PlainObjectBase" }
%"class.Eigen::PlainObjectBase" = type { %"class.Eigen::DenseStorage" }
%"class.Eigen::DenseStorage" = type { %"struct.Eigen::internal::plain_array" }
%"struct.Eigen::internal::plain_array" = type { [2 x i32] }
%"class.std::function" = type { %"class.std::_Function_base", ptr }
%"class.std::_Function_base" = type { %"union.std::_Any_data", ptr }
%"union.std::_Any_data" = type { %"union.std::_Nocopy_types" }
%"union.std::_Nocopy_types" = type { { i64, i64 } }
%"struct.open3d::visualization::Visualizer::MouseControl" = type { i8, i8, i8, i8, i8, i8, double, double }
%"class.std::unique_ptr" = type { %"struct.std::__uniq_ptr_data" }
%"struct.std::__uniq_ptr_data" = type { %"class.std::__uniq_ptr_impl" }
%"class.std::__uniq_ptr_impl" = type { %"class.std::tuple" }
%"class.std::tuple" = type { %"struct.std::_Tuple_impl" }
%"struct.std::_Tuple_impl" = type { %"struct.std::_Head_base.19" }
%"struct.std::_Head_base.19" = type { ptr }
%"class.std::unique_ptr.20" = type { %"struct.std::__uniq_ptr_data.21" }
%"struct.std::__uniq_ptr_data.21" = type { %"class.std::__uniq_ptr_impl.22" }
%"class.std::__uniq_ptr_impl.22" = type { %"class.std::tuple.23" }
%"class.std::tuple.23" = type { %"struct.std::_Tuple_impl.24" }
%"struct.std::_Tuple_impl.24" = type { %"struct.std::_Head_base.27" }
%"struct.std::_Head_base.27" = type { ptr }
%"class.std::unordered_set" = type { %"class.std::_Hashtable.28" }
%"class.std::_Hashtable.28" = type { ptr, i64, %"struct.std::__detail::_Hash_node_base", i64, %"struct.std::__detail::_Prime_rehash_policy", ptr }
%"class.std::unordered_set.47" = type { %"class.std::_Hashtable.48" }
%"class.std::_Hashtable.48" = type { ptr, i64, %"struct.std::__detail::_Hash_node_base", i64, %"struct.std::__detail::_Prime_rehash_policy", ptr }
%"class.std::vector" = type { %"struct.std::_Vector_base" }
%"struct.std::_Vector_base" = type { %"struct.std::_Vector_base<std::shared_ptr<const open3d::geometry::Geometry>, std::allocator<std::shared_ptr<const open3d::geometry::Geometry>>>::_Vector_impl" }
%"struct.std::_Vector_base<std::shared_ptr<const open3d::geometry::Geometry>, std::allocator<std::shared_ptr<const open3d::geometry::Geometry>>>::_Vector_impl" = type { %"struct.std::_Vector_base<std::shared_ptr<const open3d::geometry::Geometry>, std::allocator<std::shared_ptr<const open3d::geometry::Geometry>>>::_Vector_impl_data" }
%"struct.std::_Vector_base<std::shared_ptr<const open3d::geometry::Geometry>, std::allocator<std::shared_ptr<const open3d::geometry::Geometry>>>::_Vector_impl_data" = type { ptr, ptr, ptr }
%"class.std::vector.70" = type { %"struct.std::_Vector_base.71" }
%"struct.std::_Vector_base.71" = type { %"struct.std::_Vector_base<std::shared_ptr<open3d::visualization::glsl::GeometryRenderer>, std::allocator<std::shared_ptr<open3d::visualization::glsl::GeometryRenderer>>>::_Vector_impl" }
%"struct.std::_Vector_base<std::shared_ptr<open3d::visualization::glsl::GeometryRenderer>, std::allocator<std::shared_ptr<open3d::visualization::glsl::GeometryRenderer>>>::_Vector_impl" = type { %"struct.std::_Vector_base<std::shared_ptr<open3d::visualization::glsl::GeometryRenderer>, std::allocator<std::shared_ptr<open3d::visualization::glsl::GeometryRenderer>>>::_Vector_impl_data" }
%"struct.std::_Vector_base<std::shared_ptr<open3d::visualization::glsl::GeometryRenderer>, std::allocator<std::shared_ptr<open3d::visualization::glsl::GeometryRenderer>>>::_Vector_impl_data" = type { ptr, ptr, ptr }
%"class.std::unordered_map.75" = type { %"class.std::_Hashtable.76" }
%"class.std::_Hashtable.76" = type { ptr, i64, %"struct.std::__detail::_Hash_node_base", i64, %"struct.std::__detail::_Prime_rehash_policy", ptr }
%"class.std::shared_ptr.89" = type { %"class.std::__shared_ptr.90" }
%"class.std::__shared_ptr.90" = type { ptr, %"class.std::__shared_count" }
%"class.std::shared_ptr.92" = type { %"class.std::__shared_ptr.93" }
%"class.std::__shared_ptr.93" = type { ptr, %"class.std::__shared_count" }

; Function Attrs: mustprogress nounwind ssp uwtable
define linkonce_odr noundef nonnull align 8 dereferenceable(8) ptr @_ZNSt10_Head_baseILm0EPN6open3d13visualization11ViewControlELb0EE7_M_headERKS4_(ptr noundef nonnull align 8 dereferenceable(8) %0) #1 comdat align 2 {
  %2 = alloca ptr, align 8
  store ptr %0, ptr %2, align 8, !tbaa !217
  %3 = load ptr, ptr %2, align 8, !tbaa !217
  %4 = getelementptr inbounds nuw %"struct.std::_Head_base.19", ptr %3, i32 0, i32 0
  ret ptr %4
}

; Function Attrs: mustprogress nounwind ssp uwtable
define linkonce_odr noundef nonnull align 8 dereferenceable(8) ptr @_ZNSt11_Tuple_implILm0EJPN6open3d13visualization11ViewControlESt14default_deleteIS2_EEE7_M_headERKS6_(ptr noundef nonnull align 8 dereferenceable(8) %0) #1 comdat align 2 {
  %2 = alloca ptr, align 8
  store ptr %0, ptr %2, align 8, !tbaa !215
  %3 = load ptr, ptr %2, align 8, !tbaa !215
  %4 = call noundef nonnull align 8 dereferenceable(8) ptr @_ZNSt10_Head_baseILm0EPN6open3d13visualization11ViewControlELb0EE7_M_headERKS4_(ptr noundef nonnull align 8 dereferenceable(8) %3) #7
  ret ptr %4
}

; Function Attrs: mustprogress nounwind ssp uwtable
define linkonce_odr noundef nonnull align 8 dereferenceable(8) ptr @_ZSt12__get_helperILm0EPN6open3d13visualization11ViewControlEJSt14default_deleteIS2_EEERKT0_RKSt11_Tuple_implIXT_EJS6_DpT1_EE(ptr noundef nonnull align 8 dereferenceable(8) %0) #1 comdat {
  %2 = alloca ptr, align 8
  store ptr %0, ptr %2, align 8, !tbaa !215
  %3 = load ptr, ptr %2, align 8, !tbaa !215
  %4 = call noundef nonnull align 8 dereferenceable(8) ptr @_ZNSt11_Tuple_implILm0EJPN6open3d13visualization11ViewControlESt14default_deleteIS2_EEE7_M_headERKS6_(ptr noundef nonnull align 8 dereferenceable(8) %3) #7
  ret ptr %4
}

; Function Attrs: mustprogress nounwind ssp uwtable
define linkonce_odr noundef nonnull align 8 dereferenceable(8) ptr @_ZSt3getILm0EJPN6open3d13visualization11ViewControlESt14default_deleteIS2_EEERKNSt13tuple_elementIXT_ESt5tupleIJDpT0_EEE4typeERKSA_(ptr noundef nonnull align 8 dereferenceable(8) %0) #1 comdat {
  %2 = alloca ptr, align 8
  store ptr %0, ptr %2, align 8, !tbaa !213
  %3 = load ptr, ptr %2, align 8, !tbaa !213
  %4 = call noundef nonnull align 8 dereferenceable(8) ptr @_ZSt12__get_helperILm0EPN6open3d13visualization11ViewControlEJSt14default_deleteIS2_EEERKT0_RKSt11_Tuple_implIXT_EJS6_DpT1_EE(ptr noundef nonnull align 8 dereferenceable(8) %3) #7
  ret ptr %4
}

; Function Attrs: mustprogress nounwind ssp uwtable
define linkonce_odr noundef ptr @_ZNKSt15__uniq_ptr_implIN6open3d13visualization11ViewControlESt14default_deleteIS2_EE6_M_ptrEv(ptr noundef nonnull align 8 dereferenceable(8) %0) #1 comdat align 2 {
  %2 = alloca ptr, align 8
  store ptr %0, ptr %2, align 8, !tbaa !210
  %3 = load ptr, ptr %2, align 8
  %4 = getelementptr inbounds nuw %"class.std::__uniq_ptr_impl", ptr %3, i32 0, i32 0
  %5 = call noundef nonnull align 8 dereferenceable(8) ptr @_ZSt3getILm0EJPN6open3d13visualization11ViewControlESt14default_deleteIS2_EEERKNSt13tuple_elementIXT_ESt5tupleIJDpT0_EEE4typeERKSA_(ptr noundef nonnull align 8 dereferenceable(8) %4) #7
  %6 = load ptr, ptr %5, align 8, !tbaa !212
  ret ptr %6
}

; Function Attrs: mustprogress nounwind ssp uwtable
define linkonce_odr noundef ptr @_ZNKSt10unique_ptrIN6open3d13visualization11ViewControlESt14default_deleteIS2_EE3getEv(ptr noundef nonnull align 8 dereferenceable(8) %0) #1 comdat align 2 {
  %2 = alloca ptr, align 8
  store ptr %0, ptr %2, align 8, !tbaa !208
  %3 = load ptr, ptr %2, align 8
  %4 = getelementptr inbounds nuw %"class.std::unique_ptr", ptr %3, i32 0, i32 0
  %5 = call noundef ptr @_ZNKSt15__uniq_ptr_implIN6open3d13visualization11ViewControlESt14default_deleteIS2_EE6_M_ptrEv(ptr noundef nonnull align 8 dereferenceable(8) %4) #7
  ret ptr %5
}

; Function Attrs: mustprogress nounwind ssp uwtable
define linkonce_odr noundef ptr @_ZNKSt10unique_ptrIN6open3d13visualization11ViewControlESt14default_deleteIS2_EEptEv(ptr noundef nonnull align 8 dereferenceable(8) %0) #1 comdat align 2 {
  %2 = alloca ptr, align 8
  store ptr %0, ptr %2, align 8, !tbaa !208
  %3 = load ptr, ptr %2, align 8
  %4 = call noundef ptr @_ZNKSt10unique_ptrIN6open3d13visualization11ViewControlESt14default_deleteIS2_EE3getEv(ptr noundef nonnull align 8 dereferenceable(8) %3) #7
  ret ptr %4
}

; Function Attrs: mustprogress ssp uwtable
define void @_ZN6open3d13visualization10Visualizer19MouseButtonCallbackEP10GLFWwindowiii(ptr noundef nonnull align 8 dereferenceable(456) %0, ptr noundef %1, i32 noundef %2, i32 noundef %3, i32 noundef %4) unnamed_addr #3 align 2 {
  %6 = alloca ptr, align 8
  %7 = alloca ptr, align 8
  %8 = alloca i32, align 4
  %9 = alloca i32, align 4
  %10 = alloca i32, align 4
  %11 = alloca double, align 8
  %12 = alloca double, align 8
  store ptr %0, ptr %6, align 8, !tbaa !148
  store ptr %1, ptr %7, align 8, !tbaa !150
  store i32 %2, ptr %8, align 4, !tbaa !121
  store i32 %3, ptr %9, align 4, !tbaa !121
  store i32 %4, ptr %10, align 4, !tbaa !121
  %13 = load ptr, ptr %6, align 8
  call void @llvm.lifetime.start.p0(i64 8, ptr %11) #7
  call void @llvm.lifetime.start.p0(i64 8, ptr %12) #7
  %14 = load ptr, ptr %7, align 8, !tbaa !150
  call void @glfwGetCursorPos(ptr noundef %14, ptr noundef %11, ptr noundef %12)
  %15 = load double, ptr %11, align 8, !tbaa !219
  %16 = getelementptr inbounds nuw %"class.open3d::visualization::Visualizer", ptr %13, i32 0, i32 8
  %17 = getelementptr inbounds nuw %"struct.open3d::visualization::Visualizer::MouseControl", ptr %16, i32 0, i32 6
  store double %15, ptr %17, align 8, !tbaa !222
  %18 = load double, ptr %12, align 8, !tbaa !219
  %19 = getelementptr inbounds nuw %"class.open3d::visualization::Visualizer", ptr %13, i32 0, i32 8
  %20 = getelementptr inbounds nuw %"struct.open3d::visualization::Visualizer::MouseControl", ptr %19, i32 0, i32 7
  store double %18, ptr %20, align 8, !tbaa !223
  %21 = load i32, ptr %9, align 4, !tbaa !121
  %22 = icmp eq i32 %21, 1
  br i1 %22, label %23, label %66

23:                                               ; preds = %5
  %24 = load i32, ptr %8, align 4, !tbaa !121
  %25 = icmp eq i32 %24, 0
  br i1 %25, label %26, label %58

26:                                               ; preds = %23
  %27 = getelementptr inbounds nuw %"class.open3d::visualization::Visualizer", ptr %13, i32 0, i32 15
  %28 = call noundef ptr @_ZNKSt10unique_ptrIN6open3d13visualization11ViewControlESt14default_deleteIS2_EEptEv(ptr noundef nonnull align 8 dereferenceable(8) %27) #7
  %29 = load ptr, ptr %28, align 16, !tbaa !206
  %30 = getelementptr inbounds ptr, ptr %29, i64 10
  %31 = load ptr, ptr %30, align 8
  call void %31(ptr noundef nonnull align 16 dereferenceable(728) %28)
  %32 = getelementptr inbounds nuw %"class.open3d::visualization::Visualizer", ptr %13, i32 0, i32 8
  %33 = getelementptr inbounds nuw %"struct.open3d::visualization::Visualizer::MouseControl", ptr %32, i32 0, i32 0
  store i8 1, ptr %33, align 8, !tbaa !220
  %34 = load i32, ptr %10, align 4, !tbaa !121
  %35 = and i32 %34, 2
  %36 = icmp ne i32 %35, 0
  %37 = getelementptr inbounds nuw %"class.open3d::visualization::Visualizer", ptr %13, i32 0, i32 8
  %38 = getelementptr inbounds nuw %"struct.open3d::visualization::Visualizer::MouseControl", ptr %37, i32 0, i32 2
  %39 = zext i1 %36 to i8
  store i8 %39, ptr %38, align 2, !tbaa !221
  %40 = load i32, ptr %10, align 4, !tbaa !121
  %41 = and i32 %40, 1
  %42 = icmp ne i32 %41, 0
  %43 = getelementptr inbounds nuw %"class.open3d::visualization::Visualizer", ptr %13, i32 0, i32 8
  %44 = getelementptr inbounds nuw %"struct.open3d::visualization::Visualizer::MouseControl", ptr %43, i32 0, i32 3
  %45 = zext i1 %42 to i8
  store i8 %45, ptr %44, align 1, !tbaa !224
  %46 = load i32, ptr %10, align 4, !tbaa !121
  %47 = and i32 %46, 4
  %48 = icmp ne i32 %47, 0
  %49 = getelementptr inbounds nuw %"class.open3d::visualization::Visualizer", ptr %13, i32 0, i32 8
  %50 = getelementptr inbounds nuw %"struct.open3d::visualization::Visualizer::MouseControl", ptr %49, i32 0, i32 4
  %51 = zext i1 %48 to i8
  store i8 %51, ptr %50, align 4, !tbaa !225
  %52 = load i32, ptr %10, align 4, !tbaa !121
  %53 = and i32 %52, 8
  %54 = icmp ne i32 %53, 0
  %55 = getelementptr inbounds nuw %"class.open3d::visualization::Visualizer", ptr %13, i32 0, i32 8
  %56 = getelementptr inbounds nuw %"struct.open3d::visualization::Visualizer::MouseControl", ptr %55, i32 0, i32 5
  %57 = zext i1 %54 to i8
  store i8 %57, ptr %56, align 1, !tbaa !227
  br label %65

58:                                               ; preds = %23
  %59 = load i32, ptr %8, align 4, !tbaa !121
  %60 = icmp eq i32 %59, 2
  br i1 %60, label %61, label %64

61:                                               ; preds = %58
  %62 = getelementptr inbounds nuw %"class.open3d::visualization::Visualizer", ptr %13, i32 0, i32 8
  %63 = getelementptr inbounds nuw %"struct.open3d::visualization::Visualizer::MouseControl", ptr %62, i32 0, i32 1
  store i8 1, ptr %63, align 1, !tbaa !226
  br label %64

64:                                               ; preds = %61, %58
  br label %65

65:                                               ; preds = %64, %26
  br label %79

66:                                               ; preds = %5
  %67 = getelementptr inbounds nuw %"class.open3d::visualization::Visualizer", ptr %13, i32 0, i32 8
  %68 = getelementptr inbounds nuw %"struct.open3d::visualization::Visualizer::MouseControl", ptr %67, i32 0, i32 0
  store i8 0, ptr %68, align 8, !tbaa !220
  %69 = getelementptr inbounds nuw %"class.open3d::visualization::Visualizer", ptr %13, i32 0, i32 8
  %70 = getelementptr inbounds nuw %"struct.open3d::visualization::Visualizer::MouseControl", ptr %69, i32 0, i32 1
  store i8 0, ptr %70, align 1, !tbaa !226
  %71 = getelementptr inbounds nuw %"class.open3d::visualization::Visualizer", ptr %13, i32 0, i32 8
  %72 = getelementptr inbounds nuw %"struct.open3d::visualization::Visualizer::MouseControl", ptr %71, i32 0, i32 2
  store i8 0, ptr %72, align 2, !tbaa !221
  %73 = getelementptr inbounds nuw %"class.open3d::visualization::Visualizer", ptr %13, i32 0, i32 8
  %74 = getelementptr inbounds nuw %"struct.open3d::visualization::Visualizer::MouseControl", ptr %73, i32 0, i32 3
  store i8 0, ptr %74, align 1, !tbaa !224
  %75 = getelementptr inbounds nuw %"class.open3d::visualization::Visualizer", ptr %13, i32 0, i32 8
  %76 = getelementptr inbounds nuw %"struct.open3d::visualization::Visualizer::MouseControl", ptr %75, i32 0, i32 4
  store i8 0, ptr %76, align 4, !tbaa !225
  %77 = getelementptr inbounds nuw %"class.open3d::visualization::Visualizer", ptr %13, i32 0, i32 8
  %78 = getelementptr inbounds nuw %"struct.open3d::visualization::Visualizer::MouseControl", ptr %77, i32 0, i32 5
  store i8 0, ptr %78, align 1, !tbaa !227
  br label %79

79:                                               ; preds = %66, %65
  call void @llvm.lifetime.end.p0(i64 8, ptr %12) #7
  call void @llvm.lifetime.end.p0(i64 8, ptr %11) #7
  ret void
}