; Function Attrs: mustprogress ssp uwtable
define void @_ZN6open3d13visualization10Visualizer19MouseButtonCallbackEP10GLFWwindowiii(ptr noundef nonnull align 8 captures(none) dereferenceable(456) initializes((152, 168)) %0, ptr noundef %1, i32 noundef %2, i32 noundef %3, i32 noundef %4) unnamed_addr #4 align 2 {
  %6 = alloca double, align 8
  %7 = alloca double, align 8
  call void @llvm.lifetime.start.p0(i64 8, ptr nonnull %6) #33
  call void @llvm.lifetime.start.p0(i64 8, ptr nonnull %7) #33
  call void @glfwGetCursorPos(ptr noundef %1, ptr noundef nonnull %6, ptr noundef nonnull %7)
  %8 = load double, ptr %6, align 8, !tbaa !106
  %9 = getelementptr inbounds nuw i8, ptr %0, i64 144
  %10 = getelementptr inbounds nuw i8, ptr %0, i64 152
  store double %8, ptr %10, align 8, !tbaa !101
  %11 = load double, ptr %7, align 8, !tbaa !106
  %12 = getelementptr inbounds nuw i8, ptr %0, i64 160
  store double %11, ptr %12, align 8, !tbaa !102
  %13 = icmp eq i32 %3, 1
  br i1 %13, label %14, label %35

14:                                               ; preds = %5
  switch i32 %2, label %36 [
    i32 0, label %15
    i32 2, label %33
  ]

15:                                               ; preds = %14
  %16 = getelementptr inbounds nuw i8, ptr %0, i64 192
  %17 = load ptr, ptr %16, align 8, !tbaa !98
  %18 = load ptr, ptr %17, align 16, !tbaa !96
  %19 = getelementptr inbounds nuw i8, ptr %18, i64 80
  %20 = load ptr, ptr %19, align 8
  call void %20(ptr noundef nonnull align 16 dereferenceable(728) %17)
  store i8 1, ptr %9, align 8, !tbaa !99
  %21 = getelementptr inbounds nuw i8, ptr %0, i64 146
  %22 = trunc i32 %4 to i8
  %23 = lshr i8 %22, 1
  %24 = and i8 %23, 1
  store i8 %24, ptr %21, align 2, !tbaa !100
  %25 = getelementptr inbounds nuw i8, ptr %0, i64 147
  %26 = and i8 %22, 1
  store i8 %26, ptr %25, align 1, !tbaa !103
  %27 = getelementptr inbounds nuw i8, ptr %0, i64 148
  %28 = lshr i8 %22, 2
  %29 = and i8 %28, 1
  store i8 %29, ptr %27, align 4, !tbaa !104
  %30 = getelementptr inbounds nuw i8, ptr %0, i64 149
  %31 = lshr i8 %22, 3
  %32 = and i8 %31, 1
  store i8 %32, ptr %30, align 1, !tbaa !107
  br label %36

33:                                               ; preds = %14
  %34 = getelementptr inbounds nuw i8, ptr %0, i64 145
  store i8 1, ptr %34, align 1, !tbaa !105
  br label %36

35:                                               ; preds = %5
  call void @llvm.memset.p0.i64(ptr noundef nonnull align 8 dereferenceable(6) %9, i8 0, i64 6, i1 false)
  br label %36

36:                                               ; preds = %14, %15, %33, %35
  call void @llvm.lifetime.end.p0(i64 8, ptr nonnull %7) #33
  call void @llvm.lifetime.end.p0(i64 8, ptr nonnull %6) #33
  ret void
}